target datalayout = "e-m:e-p270:32:32-p271:32:32-p272:64:64-i64:64-i128:128-f80:128-n8:16:32:64-S128"
target triple = "x86_64-pc-linux-gnu"

%"class.icu_77::Normalizer" = type <{ %"class.icu_77::UObject", ptr, ptr, i32, i32, ptr, i32, i32, %"class.icu_77::UnicodeString", i32, [4 x i8] }>
%"class.icu_77::UObject" = type { ptr }
%"class.icu_77::UnicodeString" = type { %"class.icu_77::Replaceable", %"union.icu_77::UnicodeString::StackBufferOrFields" }
%"class.icu_77::Replaceable" = type { %"class.icu_77::UObject" }
%"union.icu_77::UnicodeString::StackBufferOrFields" = type { %struct.anon.0, [32 x i8] }
%struct.anon.0 = type { i16, i32, i32, ptr }

; Function Attrs: inlinehint mustprogress nounwind uwtable
define linkonce_odr void @_ZN6icu_7713UnicodeString13setZeroLengthEv(ptr noundef nonnull align 8 dereferenceable(64) %0) #3 comdat align 2 {
  %2 = alloca ptr, align 8
  store ptr %0, ptr %2, align 8, !tbaa !8
  %3 = load ptr, ptr %2, align 8
  %4 = getelementptr inbounds nuw %"class.icu_77::UnicodeString", ptr %3, i32 0, i32 1
  %5 = getelementptr inbounds nuw %struct.anon.0, ptr %4, i32 0, i32 0
  %6 = load i16, ptr %5, align 8, !tbaa !32
  %7 = sext i16 %6 to i32
  %8 = and i32 %7, 31
  %9 = trunc i32 %8 to i16
  store i16 %9, ptr %5, align 8, !tbaa !32
  ret void
}

; Function Attrs: inlinehint mustprogress nounwind uwtable
define linkonce_odr void @_ZN6icu_7713UnicodeString10setToEmptyEv(ptr noundef nonnull align 8 dereferenceable(64) %0) #3 comdat align 2 {
  %2 = alloca ptr, align 8
  store ptr %0, ptr %2, align 8, !tbaa !8
  %3 = load ptr, ptr %2, align 8
  %4 = getelementptr inbounds nuw %"class.icu_77::UnicodeString", ptr %3, i32 0, i32 1
  %5 = getelementptr inbounds nuw %struct.anon.0, ptr %4, i32 0, i32 0
  store i16 2, ptr %5, align 8, !tbaa !32
  ret void
}

; Function Attrs: inlinehint mustprogress nounwind uwtable
define linkonce_odr noundef signext i8 @_ZNK6icu_7713UnicodeString7isBogusEv(ptr noundef nonnull align 8 dereferenceable(64) %0) #3 comdat align 2 {
  %2 = alloca ptr, align 8
  store ptr %0, ptr %2, align 8, !tbaa !8
  %3 = load ptr, ptr %2, align 8
  %4 = getelementptr inbounds nuw %"class.icu_77::UnicodeString", ptr %3, i32 0, i32 1
  %5 = getelementptr inbounds nuw %struct.anon.0, ptr %4, i32 0, i32 0
  %6 = load i16, ptr %5, align 8, !tbaa !32
  %7 = sext i16 %6 to i32
  %8 = and i32 %7, 1
  %9 = trunc i32 %8 to i8
  ret i8 %9
}

; Function Attrs: inlinehint mustprogress uwtable
define linkonce_odr noundef nonnull align 8 dereferenceable(64) ptr @_ZN6icu_7713UnicodeString6removeEv(ptr noundef nonnull align 8 dereferenceable(64) %0) #6 comdat align 2 {
  %2 = alloca ptr, align 8
  store ptr %0, ptr %2, align 8, !tbaa !8
  %3 = load ptr, ptr %2, align 8
  %4 = call noundef signext i8 @_ZNK6icu_7713UnicodeString7isBogusEv(ptr noundef nonnull align 8 dereferenceable(64) %3)
  %5 = icmp ne i8 %4, 0
  br i1 %5, label %6, label %7

6:                                                ; preds = %1
  call void @_ZN6icu_7713UnicodeString10setToEmptyEv(ptr noundef nonnull align 8 dereferenceable(64) %3)
  br label %8

7:                                                ; preds = %1
  call void @_ZN6icu_7713UnicodeString13setZeroLengthEv(ptr noundef nonnull align 8 dereferenceable(64) %3)
  br label %8

8:                                                ; preds = %7, %6
  ret ptr %3
}

; Function Attrs: mustprogress uwtable
define noundef i32 @_ZN6icu_7710Normalizer8previousEv(ptr noundef nonnull align 8 dereferenceable(116) %0) #1 align 2 {
  %2 = alloca i32, align 4
  %3 = alloca ptr, align 8
  %4 = alloca i32, align 4
  store ptr %0, ptr %3, align 8, !tbaa !3
  %5 = load ptr, ptr %3, align 8
  %6 = getelementptr inbounds nuw %"class.icu_77::Normalizer", ptr %5, i32 0, i32 9
  %7 = load i32, ptr %6, align 8, !tbaa !29
  %8 = icmp sgt i32 %7, 0
  br i1 %8, label %12, label %9

9:                                                ; preds = %1
  %10 = call noundef signext i8 @_ZN6icu_7710Normalizer17previousNormalizeEv(ptr noundef nonnull align 8 dereferenceable(116) %5)
  %11 = icmp ne i8 %10, 0
  br i1 %11, label %12, label %25

12:                                               ; preds = %9, %1
  call void @llvm.lifetime.start.p0(i64 4, ptr %4) #9
  %13 = getelementptr inbounds nuw %"class.icu_77::Normalizer", ptr %5, i32 0, i32 8
  %14 = getelementptr inbounds nuw %"class.icu_77::Normalizer", ptr %5, i32 0, i32 9
  %15 = load i32, ptr %14, align 8, !tbaa !29
  %16 = sub nsw i32 %15, 1
  %17 = call noundef i32 @_ZNK6icu_7713UnicodeString8char32AtEi(ptr noundef nonnull align 8 dereferenceable(64) %13, i32 noundef %16)
  store i32 %17, ptr %4, align 4, !tbaa !37
  %18 = load i32, ptr %4, align 4, !tbaa !37
  %19 = icmp ule i32 %18, 65535
  %20 = select i1 %19, i32 1, i32 2
  %21 = getelementptr inbounds nuw %"class.icu_77::Normalizer", ptr %5, i32 0, i32 9
  %22 = load i32, ptr %21, align 8, !tbaa !29
  %23 = sub nsw i32 %22, %20
  store i32 %23, ptr %21, align 8, !tbaa !29
  %24 = load i32, ptr %4, align 4, !tbaa !37
  store i32 %24, ptr %2, align 4
  call void @llvm.lifetime.end.p0(i64 4, ptr %4) #9
  br label %26

25:                                               ; preds = %9
  store i32 65535, ptr %2, align 4
  br label %26

26:                                               ; preds = %25, %12
  %27 = load i32, ptr %2, align 4
  ret i32 %27
}

; Function Attrs: mustprogress uwtable
define void @_ZN6icu_7710Normalizer11clearBufferEv(ptr noundef nonnull align 8 dereferenceable(116) %0) #1 align 2 {
  %2 = alloca ptr, align 8
  store ptr %0, ptr %2, align 8, !tbaa !3
  %3 = load ptr, ptr %2, align 8
  %4 = getelementptr inbounds nuw %"class.icu_77::Normalizer", ptr %3, i32 0, i32 8
  %5 = call noundef nonnull align 8 dereferenceable(64) ptr @_ZN6icu_7713UnicodeString6removeEv(ptr noundef nonnull align 8 dereferenceable(64) %4)
  %6 = getelementptr inbounds nuw %"class.icu_77::Normalizer", ptr %3, i32 0, i32 9
  store i32 0, ptr %6, align 8, !tbaa !29
  ret void
}

; Function Attrs: inlinehint mustprogress uwtable
define linkonce_odr noundef i32 @_ZN6icu_7717CharacterIterator8setToEndEv(ptr noundef nonnull align 8 dereferenceable(24) %0) #6 comdat align 2 {
  %2 = alloca ptr, align 8
  store ptr %0, ptr %2, align 8, !tbaa !44
  %3 = load ptr, ptr %2, align 8
  %4 = load ptr, ptr %3, align 8, !tbaa !12
  %5 = getelementptr inbounds ptr, ptr %4, i64 24
  %6 = load ptr, ptr %5, align 8
  %7 = call noundef i32 %6(ptr noundef nonnull align 8 dereferenceable(24) %3, i32 noundef 0, i32 noundef 2)
  ret i32 %7
}

; Function Attrs: mustprogress uwtable
define noundef i32 @_ZN6icu_7710Normalizer4lastEv(ptr noundef nonnull align 8 dereferenceable(116) %0) #1 align 2 {
  %2 = alloca ptr, align 8
  store ptr %0, ptr %2, align 8, !tbaa !3
  %3 = load ptr, ptr %2, align 8
  %4 = getelementptr inbounds nuw %"class.icu_77::Normalizer", ptr %3, i32 0, i32 5
  %5 = load ptr, ptr %4, align 8, !tbaa !26
  %6 = call noundef i32 @_ZN6icu_7717CharacterIterator8setToEndEv(ptr noundef nonnull align 8 dereferenceable(24) %5)
  %7 = getelementptr inbounds nuw %"class.icu_77::Normalizer", ptr %3, i32 0, i32 7
  store i32 %6, ptr %7, align 4, !tbaa !28
  %8 = getelementptr inbounds nuw %"class.icu_77::Normalizer", ptr %3, i32 0, i32 6
  store i32 %6, ptr %8, align 8, !tbaa !27
  call void @_ZN6icu_7710Normalizer11clearBufferEv(ptr noundef nonnull align 8 dereferenceable(116) %3)
  %9 = call noundef i32 @_ZN6icu_7710Normalizer8previousEv(ptr noundef nonnull align 8 dereferenceable(116) %3)
  ret i32 %9
}