; Function Attrs: mustprogress uwtable
define noundef i32 @_ZN6icu_7710Normalizer4lastEv(ptr noundef nonnull align 8 dereferenceable(116) initializes((40, 48), (112, 116)) %0) local_unnamed_addr #1 align 2 {
  %2 = getelementptr inbounds nuw i8, ptr %0, i64 32
  %3 = load ptr, ptr %2, align 8, !tbaa !19
  %4 = load ptr, ptr %3, align 8, !tbaa !3
  %5 = getelementptr inbounds nuw i8, ptr %4, i64 192
  %6 = load ptr, ptr %5, align 8
  %7 = tail call noundef i32 %6(ptr noundef nonnull align 8 dereferenceable(24) %3, i32 noundef 0, i32 noundef 2)
  %8 = getelementptr inbounds nuw i8, ptr %0, i64 44
  store i32 %7, ptr %8, align 4, !tbaa !21
  %9 = getelementptr inbounds nuw i8, ptr %0, i64 40
  store i32 %7, ptr %9, align 8, !tbaa !20
  %10 = getelementptr inbounds nuw i8, ptr %0, i64 56
  %11 = load i16, ptr %10, align 8, !tbaa !22
  %12 = and i16 %11, 1
  %.not.i.i = icmp eq i16 %12, 0
  %13 = and i16 %11, 30
  %storemerge.i.i = select i1 %.not.i.i, i16 %13, i16 2
  store i16 %storemerge.i.i, ptr %10, align 8, !tbaa !22
  %14 = getelementptr inbounds nuw i8, ptr %0, i64 112
  store i32 0, ptr %14, align 8, !tbaa !23
  %15 = tail call noundef signext i8 @_ZN6icu_7710Normalizer17previousNormalizeEv(ptr noundef nonnull align 8 dereferenceable(116) %0)
  %.not.i = icmp eq i8 %15, 0
  br i1 %.not.i, label %_ZN6icu_7710Normalizer8previousEv.exit, label %16

16:                                               ; preds = %1
  %.pre.i = load i32, ptr %14, align 8, !tbaa !23
  %17 = getelementptr inbounds nuw i8, ptr %0, i64 48
  %18 = add nsw i32 %.pre.i, -1
  %19 = tail call noundef i32 @_ZNK6icu_7713UnicodeString8char32AtEi(ptr noundef nonnull align 8 dereferenceable(64) %17, i32 noundef %18)
  %20 = icmp ult i32 %19, 65536
  %.neg.i = select i1 %20, i32 -1, i32 -2
  %21 = load i32, ptr %14, align 8, !tbaa !23
  %22 = add i32 %.neg.i, %21
  store i32 %22, ptr %14, align 8, !tbaa !23
  br label %_ZN6icu_7710Normalizer8previousEv.exit

_ZN6icu_7710Normalizer8previousEv.exit:           ; preds = %1, %16
  %.0.i = phi i32 [ %19, %16 ], [ 65535, %1 ]
  ret i32 %.0.i
}